; Function Attrs: mustprogress noinline uwtable
define hidden noundef ptr @_ZN6google8protobuf5Arena18CreateMaybeMessageINS0_16EnumValueOptionsEJEEEPT_PS1_DpOT0_(ptr noundef %0) local_unnamed_addr #18 align 2 personality ptr @__gxx_personality_v0 {
  %2 = icmp eq ptr %0, null
  br i1 %2, label %3, label %8

3:                                                ; preds = %1
  %4 = tail call noalias noundef nonnull dereferenceable(80) ptr @_Znwm(i64 noundef 80) #26
  %5 = getelementptr inbounds nuw i8, ptr %4, i64 8
  store i64 0, ptr %5, align 8, !tbaa !8
  store ptr getelementptr inbounds nuw inrange(-16, 152) (i8, ptr @_ZTVN6google8protobuf16EnumValueOptionsE, i64 16), ptr %4, align 8, !tbaa !11
  %6 = getelementptr inbounds nuw i8, ptr %4, i64 16
  invoke void @_ZN6google8protobuf8internal12ExtensionSetC1EPNS0_5ArenaE(ptr noundef nonnull align 8 dereferenceable(24) %6, ptr noundef null)
          to label %_ZN6google8protobuf5Arena14InternalHelperINS0_16EnumValueOptionsEE3NewEv.exit unwind label %.body

.body:                                            ; preds = %3
  %7 = landingpad { ptr, i32 }
          cleanup
  tail call void @_ZN6google8protobuf11MessageLiteD2Ev(ptr noundef nonnull align 8 dereferenceable(80) %4) #24
  tail call void @_ZdlPv(ptr noundef nonnull %4) #25
  br label %common.resume

common.resume:                                    ; preds = %13, %.body
  %common.resume.op = phi { ptr, i32 } [ %7, %.body ], [ %14, %13 ]
  resume { ptr, i32 } %common.resume.op

_ZN6google8protobuf5Arena14InternalHelperINS0_16EnumValueOptionsEE3NewEv.exit: ; preds = %3
  %.ptr.i = getelementptr inbounds nuw i8, ptr %4, i64 40
  tail call void @llvm.memset.p0.i64(ptr noundef nonnull align 4 dereferenceable(33) %.ptr.i, i8 0, i64 33, i1 false)
  br label %_ZN6google8protobuf5Arena21CreateMessageInternalINS0_16EnumValueOptionsEEEPT_PS1_.exit

8:                                                ; preds = %1
  %9 = tail call noundef ptr @_ZN6google8protobuf5Arena23AllocateAlignedWithHookEmPKSt9type_info(ptr noundef nonnull align 8 dereferenceable(32) %0, i64 noundef 80, ptr noundef nonnull @_ZTIN6google8protobuf16EnumValueOptionsE)
  %10 = getelementptr inbounds nuw i8, ptr %9, i64 8
  %11 = ptrtoint ptr %0 to i64
  store i64 %11, ptr %10, align 8, !tbaa !8
  store ptr getelementptr inbounds nuw inrange(-16, 152) (i8, ptr @_ZTVN6google8protobuf16EnumValueOptionsE, i64 16), ptr %9, align 8, !tbaa !11
  %12 = getelementptr inbounds nuw i8, ptr %9, i64 16
  invoke void @_ZN6google8protobuf8internal12ExtensionSetC1EPNS0_5ArenaE(ptr noundef nonnull align 8 dereferenceable(24) %12, ptr noundef nonnull %0)
          to label %_ZN6google8protobuf5Arena14InternalHelperINS0_16EnumValueOptionsEE9ConstructIJPS1_EEEPS3_PvDpOT_.exit unwind label %13

13:                                               ; preds = %8
  %14 = landingpad { ptr, i32 }
          cleanup
  tail call void @_ZN6google8protobuf11MessageLiteD2Ev(ptr noundef nonnull align 8 dereferenceable(80) %9) #24
  br label %common.resume

_ZN6google8protobuf5Arena14InternalHelperINS0_16EnumValueOptionsEE9ConstructIJPS1_EEEPS3_PvDpOT_.exit: ; preds = %8
  %.ptr.i.i = getelementptr inbounds nuw i8, ptr %9, i64 40
  store i32 0, ptr %.ptr.i.i, align 4, !tbaa !58
  %15 = getelementptr inbounds nuw i8, ptr %9, i64 44
  store i32 0, ptr %15, align 4, !tbaa !25
  %16 = getelementptr inbounds nuw i8, ptr %9, i64 48
  store ptr %0, ptr %16, align 8, !tbaa !13
  %17 = getelementptr inbounds nuw i8, ptr %9, i64 56
  tail call void @llvm.memset.p0.i64(ptr noundef nonnull align 8 dereferenceable(17) %17, i8 0, i64 17, i1 false)
  br label %_ZN6google8protobuf5Arena21CreateMessageInternalINS0_16EnumValueOptionsEEEPT_PS1_.exit

_ZN6google8protobuf5Arena21CreateMessageInternalINS0_16EnumValueOptionsEEEPT_PS1_.exit: ; preds = %_ZN6google8protobuf5Arena14InternalHelperINS0_16EnumValueOptionsEE3NewEv.exit, %_ZN6google8protobuf5Arena14InternalHelperINS0_16EnumValueOptionsEE9ConstructIJPS1_EEEPS3_PvDpOT_.exit
  %.0.i = phi ptr [ %4, %_ZN6google8protobuf5Arena14InternalHelperINS0_16EnumValueOptionsEE3NewEv.exit ], [ %9, %_ZN6google8protobuf5Arena14InternalHelperINS0_16EnumValueOptionsEE9ConstructIJPS1_EEEPS3_PvDpOT_.exit ]
  ret ptr %.0.i
}